; ModuleID = 'source-C-CXX/32/2709.c'
source_filename = "source-C-CXX/32/2709.c"
target datalayout = "e-m:e-p270:32:32-p271:32:32-p272:64:64-i64:64-f80:128-n8:16:32:64-S128"
target triple = "x86_64-pc-linux-gnu"

@.str = private unnamed_addr constant [3 x i8] c"%d\00", align 1

; Function Attrs: nounwind sspstrong uwtable
define dso_local i32 @main() local_unnamed_addr #0 {
  %1 = alloca i32, align 4
  %2 = alloca [256 x i8], align 16
  %3 = bitcast i32* %1 to i8*
  call void @llvm.lifetime.start.p0i8(i64 4, i8* nonnull %3) #6
  %4 = getelementptr inbounds [256 x i8], [256 x i8]* %2, i64 0, i64 0
  call void @llvm.lifetime.start.p0i8(i64 256, i8* nonnull %4) #6
  %5 = call i32 (i8*, ...) @__isoc99_scanf(i8* getelementptr inbounds ([3 x i8], [3 x i8]* @.str, i64 0, i64 0), i32* nonnull %1)
  %6 = call i32 (i8*, ...) bitcast (i32 (...)* @gets to i32 (i8*, ...)*)(i8* nonnull %4) #6
  %7 = load i32, i32* %1, align 4, !tbaa !5
  %8 = icmp sgt i32 %7, 0
  br i1 %8, label %9, label %35

9:                                                ; preds = %0, %30
  %10 = phi i32 [ %32, %30 ], [ 0, %0 ]
  %11 = call i32 (i8*, ...) bitcast (i32 (...)* @gets to i32 (i8*, ...)*)(i8* nonnull %4) #6
  %12 = call i64 @strlen(i8* noundef nonnull %4) #7
  %13 = trunc i64 %12 to i32
  %14 = icmp sgt i32 %13, 0
  br i1 %14, label %15, label %30

15:                                               ; preds = %9
  %16 = and i64 %12, 4294967295
  br label %17

17:                                               ; preds = %15, %27
  %18 = phi i64 [ 0, %15 ], [ %28, %27 ]
  %19 = getelementptr inbounds [256 x i8], [256 x i8]* %2, i64 0, i64 %18
  %20 = load i8, i8* %19, align 1, !tbaa !9
  switch i8 %20, label %27 [
    i8 65, label %24
    i8 84, label %21
    i8 67, label %22
    i8 71, label %23
  ]

21:                                               ; preds = %17
  br label %24

22:                                               ; preds = %17
  br label %24

23:                                               ; preds = %17
  br label %24

24:                                               ; preds = %17, %21, %23, %22
  %25 = phi i32 [ 71, %22 ], [ 67, %23 ], [ 65, %21 ], [ 84, %17 ]
  %26 = call i32 @putchar(i32 %25)
  br label %27

27:                                               ; preds = %24, %17
  %28 = add nuw nsw i64 %18, 1
  %29 = icmp eq i64 %28, %16
  br i1 %29, label %30, label %17, !llvm.loop !10

30:                                               ; preds = %27, %9
  %31 = call i32 @putchar(i32 10)
  %32 = add nuw nsw i32 %10, 1
  %33 = load i32, i32* %1, align 4, !tbaa !5
  %34 = icmp slt i32 %32, %33
  br i1 %34, label %9, label %35, !llvm.loop !12

35:                                               ; preds = %30, %0
  call void @llvm.lifetime.end.p0i8(i64 256, i8* nonnull %4) #6
  call void @llvm.lifetime.end.p0i8(i64 4, i8* nonnull %3) #6
  ret i32 0
}

; Function Attrs: argmemonly mustprogress nofree nosync nounwind willreturn
declare void @llvm.lifetime.start.p0i8(i64 immarg, i8* nocapture) #1

; Function Attrs: nofree nounwind
declare noundef i32 @__isoc99_scanf(i8* nocapture noundef readonly, ...) local_unnamed_addr #2

declare i32 @gets(...) local_unnamed_addr #3

; Function Attrs: argmemonly mustprogress nofree nounwind readonly willreturn
declare i64 @strlen(i8* nocapture) local_unnamed_addr #4

; Function Attrs: argmemonly mustprogress nofree nosync nounwind willreturn
declare void @llvm.lifetime.end.p0i8(i64 immarg, i8* nocapture) #1

; Function Attrs: nofree nounwind
declare noundef i32 @putchar(i32 noundef) local_unnamed_addr #5


!llvm.module.flags = !{!0, !1, !2, !3}
!llvm.ident = !{!4}

!0 = !{i32 1, !"wchar_size", i32 4}
!1 = !{i32 7, !"PIC Level", i32 2}
!2 = !{i32 7, !"PIE Level", i32 2}
!3 = !{i32 7, !"uwtable", i32 1}
!4 = !{!"clang version 13.0.0"}
!5 = !{!6, !6, i64 0}
!6 = !{!"int", !7, i64 0}
!7 = !{!"omnipotent char", !8, i64 0}
!8 = !{!"Simple C/C++ TBAA"}
!9 = !{!7, !7, i64 0}
!10 = distinct !{!10, !11}
!11 = !{!"llvm.loop.mustprogress"}
!12 = distinct !{!12, !11}
